target datalayout = "e-m:e-p270:32:32-p271:32:32-p272:64:64-i64:64-i128:128-f80:128-n8:16:32:64-S128"
target triple = "x86_64-pc-linux-gnu"

%struct.Abc_TtStore_t_ = type { i32, i32, i32, ptr }

; Function Attrs: nounwind uwtable
define ptr @Abc_TruthStoreAlloc(i32 noundef %0, i32 noundef %1) #0 {
  %3 = alloca i32, align 4
  %4 = alloca i32, align 4
  %5 = alloca ptr, align 8
  %6 = alloca i32, align 4
  store i32 %0, ptr %3, align 4, !tbaa !10
  store i32 %1, ptr %4, align 4, !tbaa !10
  call void @llvm.lifetime.start.p0(i64 8, ptr %5) #12
  call void @llvm.lifetime.start.p0(i64 4, ptr %6) #12
  %7 = call noalias ptr @malloc(i64 noundef 24) #13
  store ptr %7, ptr %5, align 8, !tbaa !20
  %8 = load i32, ptr %3, align 4, !tbaa !10
  %9 = load ptr, ptr %5, align 8, !tbaa !20
  %10 = getelementptr inbounds nuw %struct.Abc_TtStore_t_, ptr %9, i32 0, i32 0
  store i32 %8, ptr %10, align 8, !tbaa !22
  %11 = load i32, ptr %3, align 4, !tbaa !10
  %12 = icmp slt i32 %11, 7
  br i1 %12, label %13, label %14

13:                                               ; preds = %2
  br label %18

14:                                               ; preds = %2
  %15 = load i32, ptr %3, align 4, !tbaa !10
  %16 = sub nsw i32 %15, 6
  %17 = shl i32 1, %16
  br label %18

18:                                               ; preds = %14, %13
  %19 = phi i32 [ 1, %13 ], [ %17, %14 ]
  %20 = load ptr, ptr %5, align 8, !tbaa !20
  %21 = getelementptr inbounds nuw %struct.Abc_TtStore_t_, ptr %20, i32 0, i32 1
  store i32 %19, ptr %21, align 4, !tbaa !25
  %22 = load i32, ptr %4, align 4, !tbaa !10
  %23 = load ptr, ptr %5, align 8, !tbaa !20
  %24 = getelementptr inbounds nuw %struct.Abc_TtStore_t_, ptr %23, i32 0, i32 2
  store i32 %22, ptr %24, align 8, !tbaa !26
  %25 = load ptr, ptr %5, align 8, !tbaa !20
  %26 = getelementptr inbounds nuw %struct.Abc_TtStore_t_, ptr %25, i32 0, i32 1
  %27 = load i32, ptr %26, align 4, !tbaa !25
  %28 = sext i32 %27 to i64
  %29 = mul i64 8, %28
  %30 = add i64 8, %29
  %31 = load ptr, ptr %5, align 8, !tbaa !20
  %32 = getelementptr inbounds nuw %struct.Abc_TtStore_t_, ptr %31, i32 0, i32 2
  %33 = load i32, ptr %32, align 8, !tbaa !26
  %34 = sext i32 %33 to i64
  %35 = mul i64 %30, %34
  %36 = call noalias ptr @malloc(i64 noundef %35) #13
  %37 = load ptr, ptr %5, align 8, !tbaa !20
  %38 = getelementptr inbounds nuw %struct.Abc_TtStore_t_, ptr %37, i32 0, i32 3
  store ptr %36, ptr %38, align 8, !tbaa !27
  %39 = load ptr, ptr %5, align 8, !tbaa !20
  %40 = getelementptr inbounds nuw %struct.Abc_TtStore_t_, ptr %39, i32 0, i32 3
  %41 = load ptr, ptr %40, align 8, !tbaa !27
  %42 = load ptr, ptr %5, align 8, !tbaa !20
  %43 = getelementptr inbounds nuw %struct.Abc_TtStore_t_, ptr %42, i32 0, i32 2
  %44 = load i32, ptr %43, align 8, !tbaa !26
  %45 = sext i32 %44 to i64
  %46 = getelementptr inbounds ptr, ptr %41, i64 %45
  %47 = load ptr, ptr %5, align 8, !tbaa !20
  %48 = getelementptr inbounds nuw %struct.Abc_TtStore_t_, ptr %47, i32 0, i32 3
  %49 = load ptr, ptr %48, align 8, !tbaa !27
  %50 = getelementptr inbounds ptr, ptr %49, i64 0
  store ptr %46, ptr %50, align 8, !tbaa !3
  %51 = load ptr, ptr %5, align 8, !tbaa !20
  %52 = getelementptr inbounds nuw %struct.Abc_TtStore_t_, ptr %51, i32 0, i32 3
  %53 = load ptr, ptr %52, align 8, !tbaa !27
  %54 = getelementptr inbounds ptr, ptr %53, i64 0
  %55 = load ptr, ptr %54, align 8, !tbaa !3
  %56 = load ptr, ptr %5, align 8, !tbaa !20
  %57 = getelementptr inbounds nuw %struct.Abc_TtStore_t_, ptr %56, i32 0, i32 1
  %58 = load i32, ptr %57, align 4, !tbaa !25
  %59 = sext i32 %58 to i64
  %60 = mul i64 8, %59
  %61 = load ptr, ptr %5, align 8, !tbaa !20
  %62 = getelementptr inbounds nuw %struct.Abc_TtStore_t_, ptr %61, i32 0, i32 2
  %63 = load i32, ptr %62, align 8, !tbaa !26
  %64 = sext i32 %63 to i64
  %65 = mul i64 %60, %64
  call void @llvm.memset.p0.i64(ptr align 8 %55, i8 0, i64 %65, i1 false)
  store i32 1, ptr %6, align 4, !tbaa !10
  br label %66

66:                                               ; preds = %92, %18
  %67 = load i32, ptr %6, align 4, !tbaa !10
  %68 = load ptr, ptr %5, align 8, !tbaa !20
  %69 = getelementptr inbounds nuw %struct.Abc_TtStore_t_, ptr %68, i32 0, i32 2
  %70 = load i32, ptr %69, align 8, !tbaa !26
  %71 = icmp slt i32 %67, %70
  br i1 %71, label %72, label %95

72:                                               ; preds = %66
  %73 = load ptr, ptr %5, align 8, !tbaa !20
  %74 = getelementptr inbounds nuw %struct.Abc_TtStore_t_, ptr %73, i32 0, i32 3
  %75 = load ptr, ptr %74, align 8, !tbaa !27
  %76 = load i32, ptr %6, align 4, !tbaa !10
  %77 = sub nsw i32 %76, 1
  %78 = sext i32 %77 to i64
  %79 = getelementptr inbounds ptr, ptr %75, i64 %78
  %80 = load ptr, ptr %79, align 8, !tbaa !3
  %81 = load ptr, ptr %5, align 8, !tbaa !20
  %82 = getelementptr inbounds nuw %struct.Abc_TtStore_t_, ptr %81, i32 0, i32 1
  %83 = load i32, ptr %82, align 4, !tbaa !25
  %84 = sext i32 %83 to i64
  %85 = getelementptr inbounds i64, ptr %80, i64 %84
  %86 = load ptr, ptr %5, align 8, !tbaa !20
  %87 = getelementptr inbounds nuw %struct.Abc_TtStore_t_, ptr %86, i32 0, i32 3
  %88 = load ptr, ptr %87, align 8, !tbaa !27
  %89 = load i32, ptr %6, align 4, !tbaa !10
  %90 = sext i32 %89 to i64
  %91 = getelementptr inbounds ptr, ptr %88, i64 %90
  store ptr %85, ptr %91, align 8, !tbaa !3
  br label %92

92:                                               ; preds = %72
  %93 = load i32, ptr %6, align 4, !tbaa !10
  %94 = add nsw i32 %93, 1
  store i32 %94, ptr %6, align 4, !tbaa !10
  br label %66, !llvm.loop !28

95:                                               ; preds = %66
  %96 = load ptr, ptr %5, align 8, !tbaa !20
  call void @llvm.lifetime.end.p0(i64 4, ptr %6) #12
  call void @llvm.lifetime.end.p0(i64 8, ptr %5) #12
  ret ptr %96
}