; Function Attrs: nofree nounwind memory(readwrite, argmem: none) uwtable
define noalias noundef ptr @Abc_TruthStoreAlloc(i32 noundef %0, i32 noundef %1) local_unnamed_addr #3 {
  %3 = tail call noalias dereferenceable_or_null(24) ptr @malloc(i64 noundef 24) #22
  store i32 %0, ptr %3, align 8, !tbaa !11
  %4 = icmp slt i32 %0, 7
  %5 = add nsw i32 %0, -6
  %6 = shl nuw i32 1, %5
  %7 = select i1 %4, i32 1, i32 %6
  %8 = getelementptr inbounds nuw i8, ptr %3, i64 4
  store i32 %7, ptr %8, align 4, !tbaa !16
  %9 = getelementptr inbounds nuw i8, ptr %3, i64 8
  store i32 %1, ptr %9, align 8, !tbaa !17
  %10 = sext i32 %7 to i64
  %11 = shl nsw i64 %10, 3
  %12 = add nsw i64 %11, 8
  %13 = sext i32 %1 to i64
  %14 = mul i64 %12, %13
  %15 = tail call noalias ptr @malloc(i64 noundef %14) #22
  %16 = getelementptr inbounds nuw i8, ptr %3, i64 16
  store ptr %15, ptr %16, align 8, !tbaa !18
  %17 = getelementptr inbounds ptr, ptr %15, i64 %13
  store ptr %17, ptr %15, align 8, !tbaa !19
  %18 = mul i64 %11, %13
  tail call void @llvm.memset.p0.i64(ptr nonnull align 8 %17, i8 0, i64 %18, i1 false)
  %19 = icmp sgt i32 %1, 1
  br i1 %19, label %.lr.ph.preheader, label %._crit_edge

.lr.ph.preheader:                                 ; preds = %2
  %wide.trip.count = zext nneg i32 %1 to i64
  %load_initial = load ptr, ptr %15, align 8
  br label %.lr.ph

.lr.ph:                                           ; preds = %.lr.ph.preheader, %.lr.ph
  %store_forwarded = phi ptr [ %load_initial, %.lr.ph.preheader ], [ %21, %.lr.ph ]
  %indvars.iv = phi i64 [ 1, %.lr.ph.preheader ], [ %indvars.iv.next, %.lr.ph ]
  %20 = getelementptr ptr, ptr %15, i64 %indvars.iv
  %21 = getelementptr inbounds i64, ptr %store_forwarded, i64 %10
  store ptr %21, ptr %20, align 8, !tbaa !19
  %indvars.iv.next = add nuw nsw i64 %indvars.iv, 1
  %exitcond.not = icmp eq i64 %indvars.iv.next, %wide.trip.count
  br i1 %exitcond.not, label %._crit_edge, label %.lr.ph, !llvm.loop !21

._crit_edge:                                      ; preds = %.lr.ph, %2
  ret ptr %3
}